; ModuleID = '20/1267.c'
source_filename = "20/1267.c"
target datalayout = "e-m:e-p270:32:32-p271:32:32-p272:64:64-i64:64-f80:128-n8:16:32:64-S128"
target triple = "x86_64-pc-linux-gnu"

@.str = private unnamed_addr constant [5 x i8] c"%s%s\00", align 1
@.str.1 = private unnamed_addr constant [3 x i8] c"%c\00", align 1
@.str.2 = private unnamed_addr constant [2 x i8] c"\0A\00", align 1

; Function Attrs: noinline nounwind uwtable
define dso_local void @main() #0 {
  %1 = alloca i32, align 4
  %2 = alloca i32, align 4
  %3 = alloca i32, align 4
  %4 = alloca i32, align 4
  %5 = alloca i32, align 4
  %6 = alloca [100 x [11 x i8]], align 16
  %7 = alloca [100 x [4 x i8]], align 16
  store i32 0, i32* %4, align 4
  br label %8

8:                                                ; preds = %19, %0
  %9 = load i32, i32* %4, align 4
  %10 = sext i32 %9 to i64
  %11 = getelementptr inbounds [100 x [11 x i8]], [100 x [11 x i8]]* %6, i64 0, i64 %10
  %12 = getelementptr inbounds [11 x i8], [11 x i8]* %11, i64 0, i64 0
  %13 = load i32, i32* %4, align 4
  %14 = sext i32 %13 to i64
  %15 = getelementptr inbounds [100 x [4 x i8]], [100 x [4 x i8]]* %7, i64 0, i64 %14
  %16 = getelementptr inbounds [4 x i8], [4 x i8]* %15, i64 0, i64 0
  %17 = call i32 (i8*, ...) @__isoc99_scanf(i8* getelementptr inbounds ([5 x i8], [5 x i8]* @.str, i64 0, i64 0), i8* %12, i8* %16)
  %18 = icmp ne i32 %17, -1
  br i1 %18, label %19, label %22

19:                                               ; preds = %8
  %20 = load i32, i32* %4, align 4
  %21 = add nsw i32 %20, 1
  store i32 %21, i32* %4, align 4
  br label %8

22:                                               ; preds = %8
  store i32 0, i32* %1, align 4
  br label %23

23:                                               ; preds = %155, %22
  %24 = load i32, i32* %1, align 4
  %25 = load i32, i32* %4, align 4
  %26 = icmp slt i32 %24, %25
  br i1 %26, label %27, label %158

27:                                               ; preds = %23
  store i32 0, i32* %5, align 4
  store i32 0, i32* %2, align 4
  br label %28

28:                                               ; preds = %58, %27
  %29 = load i32, i32* %2, align 4
  %30 = sext i32 %29 to i64
  %31 = load i32, i32* %1, align 4
  %32 = sext i32 %31 to i64
  %33 = getelementptr inbounds [100 x [11 x i8]], [100 x [11 x i8]]* %6, i64 0, i64 %32
  %34 = getelementptr inbounds [11 x i8], [11 x i8]* %33, i64 0, i64 0
  %35 = call i64 @strlen(i8* %34) #3
  %36 = icmp ult i64 %30, %35
  br i1 %36, label %37, label %61

37:                                               ; preds = %28
  %38 = load i32, i32* %1, align 4
  %39 = sext i32 %38 to i64
  %40 = getelementptr inbounds [100 x [11 x i8]], [100 x [11 x i8]]* %6, i64 0, i64 %39
  %41 = load i32, i32* %2, align 4
  %42 = sext i32 %41 to i64
  %43 = getelementptr inbounds [11 x i8], [11 x i8]* %40, i64 0, i64 %42
  %44 = load i8, i8* %43, align 1
  %45 = sext i8 %44 to i32
  %46 = load i32, i32* %5, align 4
  %47 = icmp sgt i32 %45, %46
  br i1 %47, label %48, label %57

48:                                               ; preds = %37
  %49 = load i32, i32* %1, align 4
  %50 = sext i32 %49 to i64
  %51 = getelementptr inbounds [100 x [11 x i8]], [100 x [11 x i8]]* %6, i64 0, i64 %50
  %52 = load i32, i32* %2, align 4
  %53 = sext i32 %52 to i64
  %54 = getelementptr inbounds [11 x i8], [11 x i8]* %51, i64 0, i64 %53
  %55 = load i8, i8* %54, align 1
  %56 = sext i8 %55 to i32
  store i32 %56, i32* %5, align 4
  br label %57

57:                                               ; preds = %48, %37
  br label %58

58:                                               ; preds = %57
  %59 = load i32, i32* %2, align 4
  %60 = add nsw i32 %59, 1
  store i32 %60, i32* %2, align 4
  br label %28

61:                                               ; preds = %28
  store i32 0, i32* %2, align 4
  br label %62

62:                                               ; preds = %151, %61
  %63 = load i32, i32* %2, align 4
  %64 = sext i32 %63 to i64
  %65 = load i32, i32* %1, align 4
  %66 = sext i32 %65 to i64
  %67 = getelementptr inbounds [100 x [11 x i8]], [100 x [11 x i8]]* %6, i64 0, i64 %66
  %68 = getelementptr inbounds [11 x i8], [11 x i8]* %67, i64 0, i64 0
  %69 = call i64 @strlen(i8* %68) #3
  %70 = icmp ult i64 %64, %69
  br i1 %70, label %71, label %154

71:                                               ; preds = %62
  %72 = load i32, i32* %1, align 4
  %73 = sext i32 %72 to i64
  %74 = getelementptr inbounds [100 x [11 x i8]], [100 x [11 x i8]]* %6, i64 0, i64 %73
  %75 = load i32, i32* %2, align 4
  %76 = sext i32 %75 to i64
  %77 = getelementptr inbounds [11 x i8], [11 x i8]* %74, i64 0, i64 %76
  %78 = load i8, i8* %77, align 1
  %79 = sext i8 %78 to i32
  %80 = load i32, i32* %5, align 4
  %81 = icmp eq i32 %79, %80
  br i1 %81, label %82, label %150

82:                                               ; preds = %71
  store i32 0, i32* %3, align 4
  br label %83

83:                                               ; preds = %97, %82
  %84 = load i32, i32* %3, align 4
  %85 = load i32, i32* %2, align 4
  %86 = icmp sle i32 %84, %85
  br i1 %86, label %87, label %100

87:                                               ; preds = %83
  %88 = load i32, i32* %1, align 4
  %89 = sext i32 %88 to i64
  %90 = getelementptr inbounds [100 x [11 x i8]], [100 x [11 x i8]]* %6, i64 0, i64 %89
  %91 = load i32, i32* %3, align 4
  %92 = sext i32 %91 to i64
  %93 = getelementptr inbounds [11 x i8], [11 x i8]* %90, i64 0, i64 %92
  %94 = load i8, i8* %93, align 1
  %95 = sext i8 %94 to i32
  %96 = call i32 (i8*, ...) @printf(i8* getelementptr inbounds ([3 x i8], [3 x i8]* @.str.1, i64 0, i64 0), i32 %95)
  br label %97

97:                                               ; preds = %87
  %98 = load i32, i32* %3, align 4
  %99 = add nsw i32 %98, 1
  store i32 %99, i32* %3, align 4
  br label %83

100:                                              ; preds = %83
  store i32 0, i32* %3, align 4
  br label %101

101:                                              ; preds = %120, %100
  %102 = load i32, i32* %3, align 4
  %103 = sext i32 %102 to i64
  %104 = load i32, i32* %1, align 4
  %105 = sext i32 %104 to i64
  %106 = getelementptr inbounds [100 x [4 x i8]], [100 x [4 x i8]]* %7, i64 0, i64 %105
  %107 = getelementptr inbounds [4 x i8], [4 x i8]* %106, i64 0, i64 0
  %108 = call i64 @strlen(i8* %107) #3
  %109 = icmp ult i64 %103, %108
  br i1 %109, label %110, label %123

110:                                              ; preds = %101
  %111 = load i32, i32* %1, align 4
  %112 = sext i32 %111 to i64
  %113 = getelementptr inbounds [100 x [4 x i8]], [100 x [4 x i8]]* %7, i64 0, i64 %112
  %114 = load i32, i32* %3, align 4
  %115 = sext i32 %114 to i64
  %116 = getelementptr inbounds [4 x i8], [4 x i8]* %113, i64 0, i64 %115
  %117 = load i8, i8* %116, align 1
  %118 = sext i8 %117 to i32
  %119 = call i32 (i8*, ...) @printf(i8* getelementptr inbounds ([3 x i8], [3 x i8]* @.str.1, i64 0, i64 0), i32 %118)
  br label %120

120:                                              ; preds = %110
  %121 = load i32, i32* %3, align 4
  %122 = add nsw i32 %121, 1
  store i32 %122, i32* %3, align 4
  br label %101

123:                                              ; preds = %101
  %124 = load i32, i32* %2, align 4
  %125 = add nsw i32 %124, 1
  store i32 %125, i32* %3, align 4
  br label %126

126:                                              ; preds = %145, %123
  %127 = load i32, i32* %3, align 4
  %128 = sext i32 %127 to i64
  %129 = load i32, i32* %1, align 4
  %130 = sext i32 %129 to i64
  %131 = getelementptr inbounds [100 x [11 x i8]], [100 x [11 x i8]]* %6, i64 0, i64 %130
  %132 = getelementptr inbounds [11 x i8], [11 x i8]* %131, i64 0, i64 0
  %133 = call i64 @strlen(i8* %132) #3
  %134 = icmp ult i64 %128, %133
  br i1 %134, label %135, label %148

135:                                              ; preds = %126
  %136 = load i32, i32* %1, align 4
  %137 = sext i32 %136 to i64
  %138 = getelementptr inbounds [100 x [11 x i8]], [100 x [11 x i8]]* %6, i64 0, i64 %137
  %139 = load i32, i32* %3, align 4
  %140 = sext i32 %139 to i64
  %141 = getelementptr inbounds [11 x i8], [11 x i8]* %138, i64 0, i64 %140
  %142 = load i8, i8* %141, align 1
  %143 = sext i8 %142 to i32
  %144 = call i32 (i8*, ...) @printf(i8* getelementptr inbounds ([3 x i8], [3 x i8]* @.str.1, i64 0, i64 0), i32 %143)
  br label %145

145:                                              ; preds = %135
  %146 = load i32, i32* %3, align 4
  %147 = add nsw i32 %146, 1
  store i32 %147, i32* %3, align 4
  br label %126

148:                                              ; preds = %126
  %149 = call i32 (i8*, ...) @printf(i8* getelementptr inbounds ([2 x i8], [2 x i8]* @.str.2, i64 0, i64 0))
  br label %154

150:                                              ; preds = %71
  br label %151

151:                                              ; preds = %150
  %152 = load i32, i32* %2, align 4
  %153 = add nsw i32 %152, 1
  store i32 %153, i32* %2, align 4
  br label %62

154:                                              ; preds = %148, %62
  br label %155

155:                                              ; preds = %154
  %156 = load i32, i32* %1, align 4
  %157 = add nsw i32 %156, 1
  store i32 %157, i32* %1, align 4
  br label %23

158:                                              ; preds = %23
  ret void
}

declare dso_local i32 @__isoc99_scanf(i8*, ...) #1

; Function Attrs: nounwind readonly
declare dso_local i64 @strlen(i8*) #2

declare dso_local i32 @printf(i8*, ...) #1


!llvm.module.flags = !{!0}
!llvm.ident = !{!1}

!0 = !{i32 1, !"wchar_size", i32 4}
!1 = !{!"clang version 10.0.0-4ubuntu1 "}
